; Function Attrs: mustprogress uwtable
define internal fastcc void @"_ZZNK19OpenColorIO_v2_4dev9Processor4Impl21getOptimizedProcessorENS_8BitDepthES2_NS_17OptimizationFlagsEENK3$_0clERKS1_S2_S2_S3_"(ptr noalias align 8 %agg.result, ptr noundef nonnull align 8 dereferenceable(552) %procImpl, i32 noundef %inBitDepth, i32 noundef %outBitDepth, i64 noundef %oFlags) unnamed_addr #0 align 2 personality ptr @__gxx_personality_v0 {
entry:
  %inBitDepth.addr = alloca i32, align 4
  %outBitDepth.addr = alloca i32, align 4
  store i32 %inBitDepth, ptr %inBitDepth.addr, align 4
  store i32 %outBitDepth, ptr %outBitDepth.addr, align 4
  tail call void @_ZN19OpenColorIO_v2_4dev9Processor6CreateEv(ptr sret(%"class.std::shared_ptr.27") align 8 %agg.result)
  %0 = load ptr, ptr %agg.result, align 8
  %1 = load ptr, ptr %0, align 8
  %call4 = invoke noundef nonnull align 8 dereferenceable(552) ptr @_ZN19OpenColorIO_v2_4dev9Processor4ImplaSERKS1_(ptr noundef nonnull align 8 dereferenceable(552) %1, ptr noundef nonnull align 8 dereferenceable(552) %procImpl)
          to label %invoke.cont3 unwind label %lpad

invoke.cont3:                                     ; preds = %entry
  %2 = load ptr, ptr %0, align 8
  %m_ops = getelementptr inbounds i8, ptr %2, i64 16
  invoke void @_ZN19OpenColorIO_v2_4dev10OpRcPtrVec8finalizeEv(ptr noundef nonnull align 8 dereferenceable(144) %m_ops)
          to label %invoke.cont8 unwind label %lpad

invoke.cont8:                                     ; preds = %invoke.cont3
  %3 = load ptr, ptr %0, align 8
  %m_ops12 = getelementptr inbounds i8, ptr %3, i64 16
  invoke void @_ZN19OpenColorIO_v2_4dev10OpRcPtrVec8optimizeENS_17OptimizationFlagsE(ptr noundef nonnull align 8 dereferenceable(144) %m_ops12, i64 noundef %oFlags)
          to label %invoke.cont13 unwind label %lpad

invoke.cont13:                                    ; preds = %invoke.cont8
  %4 = load ptr, ptr %0, align 8
  %m_ops17 = getelementptr inbounds i8, ptr %4, i64 16
  invoke void @_ZN19OpenColorIO_v2_4dev10OpRcPtrVec19optimizeForBitdepthERKNS_8BitDepthES3_NS_17OptimizationFlagsE(ptr noundef nonnull align 8 dereferenceable(144) %m_ops17, ptr noundef nonnull align 4 dereferenceable(4) %inBitDepth.addr, ptr noundef nonnull align 4 dereferenceable(4) %outBitDepth.addr, i64 noundef %oFlags)
          to label %invoke.cont18 unwind label %lpad

invoke.cont18:                                    ; preds = %invoke.cont13
  %5 = load ptr, ptr %0, align 8
  %m_ops22 = getelementptr inbounds i8, ptr %5, i64 16
  invoke void @_ZN19OpenColorIO_v2_4dev10OpRcPtrVec25validateDynamicPropertiesEv(ptr noundef nonnull align 8 dereferenceable(144) %m_ops22)
          to label %nrvo.skipdtor unwind label %lpad

lpad:                                             ; preds = %invoke.cont18, %invoke.cont13, %invoke.cont8, %invoke.cont3, %entry
  %6 = landingpad { ptr, i32 }
          cleanup
  call void @_ZNSt10shared_ptrIN19OpenColorIO_v2_4dev9ProcessorEED2Ev(ptr noundef nonnull align 8 dereferenceable(16) %agg.result) #22
  resume { ptr, i32 } %6

nrvo.skipdtor:                                    ; preds = %invoke.cont18
  ret void
}